; Function Attrs: nounwind uwtable
define zeroext i8 @l_Lake_initFn____x40_Lake_DSL_AttributesCore___hyg_532____lambda__1(ptr noundef %0, ptr noundef %1) local_unnamed_addr #0 {
  %3 = load ptr, ptr @l_Lake_initFn____x40_Lake_DSL_AttributesCore___hyg_108____lambda__2___closed__1, align 8, !tbaa !9
  %4 = ptrtoint ptr %1 to i64
  %5 = and i64 %4, 1
  %.not = icmp eq i64 %5, 0
  br i1 %.not, label %6, label %lean_inc.exit.thread

6:                                                ; preds = %2
  %.val.i = load i32, ptr %1, align 4, !tbaa !4
  %7 = icmp sgt i32 %.val.i, 0
  br i1 %7, label %8, label %10, !prof !11

8:                                                ; preds = %6
  %9 = add nuw i32 %.val.i, 1
  store i32 %9, ptr %1, align 4, !tbaa !4
  br label %lean_inc.exit

10:                                               ; preds = %6
  %.not.i11 = icmp eq i32 %.val.i, 0
  br i1 %.not.i11, label %lean_inc.exit, label %11

11:                                               ; preds = %10
  tail call void @lean_inc_ref_cold(ptr noundef nonnull %1) #4
  br label %lean_inc.exit

lean_inc.exit:                                    ; preds = %11, %10, %8
  %12 = tail call zeroext i8 @l_Lake_OrderedTagAttribute_hasTag(ptr noundef %3, ptr noundef nonnull %1, ptr noundef %0) #4
  %13 = icmp eq i8 %12, 0
  br i1 %13, label %16, label %19

lean_inc.exit.thread:                             ; preds = %2
  %14 = tail call zeroext i8 @l_Lake_OrderedTagAttribute_hasTag(ptr noundef %3, ptr noundef %1, ptr noundef %0) #4
  %15 = icmp eq i8 %14, 0
  br i1 %15, label %16, label %lean_dec.exit

16:                                               ; preds = %lean_inc.exit.thread, %lean_inc.exit
  %17 = load ptr, ptr @l_Lake_initFn____x40_Lake_DSL_AttributesCore___hyg_437____lambda__1___closed__1, align 8, !tbaa !9
  %18 = tail call zeroext i8 @l_Lake_OrderedTagAttribute_hasTag(ptr noundef %17, ptr noundef %1, ptr noundef %0) #4
  br label %lean_dec.exit

19:                                               ; preds = %lean_inc.exit
  %20 = load i32, ptr %1, align 4, !tbaa !4
  %21 = icmp sgt i32 %20, 1
  br i1 %21, label %22, label %24, !prof !11

22:                                               ; preds = %19
  %23 = add nsw i32 %20, -1
  store i32 %23, ptr %1, align 4, !tbaa !4
  br label %lean_dec.exit

24:                                               ; preds = %19
  %.not.i = icmp eq i32 %20, 0
  br i1 %.not.i, label %lean_dec.exit, label %25

25:                                               ; preds = %24
  tail call void @lean_dec_ref_cold(ptr noundef nonnull %1) #4
  br label %lean_dec.exit

lean_dec.exit:                                    ; preds = %lean_inc.exit.thread, %22, %24, %25, %16
  %.0 = phi i8 [ %18, %16 ], [ 1, %25 ], [ 1, %24 ], [ 1, %22 ], [ 1, %lean_inc.exit.thread ]
  ret i8 %.0
}